target datalayout = "e-m:e-p270:32:32-p271:32:32-p272:64:64-i64:64-i128:128-f80:128-n8:16:32:64-S128"
target triple = "x86_64-pc-linux-gnu"

%union.ufmt_args = type { i64 }
%struct.u_scanf_spec_info = type { i32, i16, i16, i8, i8, i8, i8, i8, i8 }
%struct.UFILE = type { ptr, ptr, ptr, %struct.u_localized_string, [1024 x i16], i8, i32 }
%struct.u_localized_string = type { ptr, ptr, ptr, %struct.ULocaleBundle }
%struct.ULocaleBundle = type { ptr, [5 x ptr], i8 }

; Function Attrs: mustprogress uwtable
define internal noundef i32 @_ZL23u_scanf_skip_leading_wsP5UFILEDs(ptr noundef %0, i16 noundef zeroext %1) #0 {
  %3 = alloca ptr, align 8
  %4 = alloca i16, align 2
  %5 = alloca i16, align 2
  %6 = alloca i32, align 4
  %7 = alloca i8, align 1
  store ptr %0, ptr %3, align 8, !tbaa !3
  store i16 %1, ptr %4, align 2, !tbaa !14
  call void @llvm.lifetime.start.p0(i64 2, ptr %5) #5
  call void @llvm.lifetime.start.p0(i64 4, ptr %6) #5
  store i32 0, ptr %6, align 4, !tbaa !12
  call void @llvm.lifetime.start.p0(i64 1, ptr %7) #5
  br label %8

8:                                                ; preds = %28, %2
  %9 = load ptr, ptr %3, align 8, !tbaa !3
  %10 = call signext i8 @ufile_getch_77(ptr noundef %9, ptr noundef %5)
  store i8 %10, ptr %7, align 1, !tbaa !28
  %11 = sext i8 %10 to i32
  %12 = icmp eq i32 %11, 1
  br i1 %12, label %13, label %26

13:                                               ; preds = %8
  %14 = load i16, ptr %5, align 2, !tbaa !14
  %15 = zext i16 %14 to i32
  %16 = load i16, ptr %4, align 2, !tbaa !14
  %17 = zext i16 %16 to i32
  %18 = icmp eq i32 %15, %17
  br i1 %18, label %24, label %19

19:                                               ; preds = %13
  %20 = load i16, ptr %5, align 2, !tbaa !14
  %21 = zext i16 %20 to i32
  %22 = call signext i8 @u_isWhitespace_77(i32 noundef %21)
  %23 = icmp ne i8 %22, 0
  br label %24

24:                                               ; preds = %19, %13
  %25 = phi i1 [ true, %13 ], [ %23, %19 ]
  br label %26

26:                                               ; preds = %24, %8
  %27 = phi i1 [ false, %8 ], [ %25, %24 ]
  br i1 %27, label %28, label %31

28:                                               ; preds = %26
  %29 = load i32, ptr %6, align 4, !tbaa !12
  %30 = add nsw i32 %29, 1
  store i32 %30, ptr %6, align 4, !tbaa !12
  br label %8, !llvm.loop !82

31:                                               ; preds = %26
  %32 = load i8, ptr %7, align 1, !tbaa !28
  %33 = icmp ne i8 %32, 0
  br i1 %33, label %34, label %39

34:                                               ; preds = %31
  %35 = load i16, ptr %5, align 2, !tbaa !14
  %36 = zext i16 %35 to i32
  %37 = load ptr, ptr %3, align 8, !tbaa !3
  %38 = call i32 @u_fungetc_77(i32 noundef %36, ptr noundef %37)
  br label %39

39:                                               ; preds = %34, %31
  %40 = load i32, ptr %6, align 4, !tbaa !12
  call void @llvm.lifetime.end.p0(i64 1, ptr %7) #5
  call void @llvm.lifetime.end.p0(i64 4, ptr %6) #5
  call void @llvm.lifetime.end.p0(i64 2, ptr %5) #5
  ret i32 %40
}

; Function Attrs: mustprogress uwtable
define internal noundef i32 @_ZL24u_scanf_spellout_handlerP5UFILEP17u_scanf_spec_infoP9ufmt_argsPKDsPiS7_(ptr noundef %0, ptr noundef %1, ptr noundef %2, ptr noundef %3, ptr noundef %4, ptr noundef %5) #0 {
  %7 = alloca i32, align 4
  %8 = alloca ptr, align 8
  %9 = alloca ptr, align 8
  %10 = alloca ptr, align 8
  %11 = alloca ptr, align 8
  %12 = alloca ptr, align 8
  %13 = alloca ptr, align 8
  %14 = alloca i32, align 4
  %15 = alloca double, align 8
  %16 = alloca ptr, align 8
  %17 = alloca i32, align 4
  %18 = alloca i32, align 4
  %19 = alloca i32, align 4
  %20 = alloca i32, align 4
  store ptr %0, ptr %8, align 8, !tbaa !3
  store ptr %1, ptr %9, align 8, !tbaa !35
  store ptr %2, ptr %10, align 8, !tbaa !50
  store ptr %3, ptr %11, align 8, !tbaa !8
  store ptr %4, ptr %12, align 8, !tbaa !52
  store ptr %5, ptr %13, align 8, !tbaa !52
  call void @llvm.lifetime.start.p0(i64 4, ptr %14) #5
  call void @llvm.lifetime.start.p0(i64 8, ptr %15) #5
  call void @llvm.lifetime.start.p0(i64 8, ptr %16) #5
  call void @llvm.lifetime.start.p0(i64 4, ptr %17) #5
  store i32 0, ptr %17, align 4, !tbaa !12
  call void @llvm.lifetime.start.p0(i64 4, ptr %18) #5
  call void @llvm.lifetime.start.p0(i64 4, ptr %19) #5
  store i32 0, ptr %19, align 4, !tbaa !54
  %21 = load ptr, ptr %8, align 8, !tbaa !3
  %22 = load ptr, ptr %9, align 8, !tbaa !35
  %23 = getelementptr inbounds nuw %struct.u_scanf_spec_info, ptr %22, i32 0, i32 2
  %24 = load i16, ptr %23, align 2, !tbaa !40
  %25 = call noundef i32 @_ZL23u_scanf_skip_leading_wsP5UFILEDs(ptr noundef %21, i16 noundef zeroext %24)
  store i32 %25, ptr %18, align 4, !tbaa !12
  %26 = load ptr, ptr %8, align 8, !tbaa !3
  call void @_Z26ufile_fill_uchar_buffer_77P5UFILE(ptr noundef %26)
  %27 = load ptr, ptr %8, align 8, !tbaa !3
  %28 = getelementptr inbounds nuw %struct.UFILE, ptr %27, i32 0, i32 3
  %29 = getelementptr inbounds nuw %struct.u_localized_string, ptr %28, i32 0, i32 1
  %30 = load ptr, ptr %29, align 8, !tbaa !56
  %31 = load ptr, ptr %8, align 8, !tbaa !3
  %32 = getelementptr inbounds nuw %struct.UFILE, ptr %31, i32 0, i32 3
  %33 = getelementptr inbounds nuw %struct.u_localized_string, ptr %32, i32 0, i32 0
  %34 = load ptr, ptr %33, align 8, !tbaa !63
  %35 = ptrtoint ptr %30 to i64
  %36 = ptrtoint ptr %34 to i64
  %37 = sub i64 %35, %36
  %38 = sdiv exact i64 %37, 2
  %39 = trunc i64 %38 to i32
  store i32 %39, ptr %14, align 4, !tbaa !12
  %40 = load ptr, ptr %9, align 8, !tbaa !35
  %41 = getelementptr inbounds nuw %struct.u_scanf_spec_info, ptr %40, i32 0, i32 0
  %42 = load i32, ptr %41, align 4, !tbaa !38
  %43 = icmp ne i32 %42, -1
  br i1 %43, label %44, label %58

44:                                               ; preds = %6
  %45 = load i32, ptr %14, align 4, !tbaa !12
  %46 = load ptr, ptr %9, align 8, !tbaa !35
  %47 = getelementptr inbounds nuw %struct.u_scanf_spec_info, ptr %46, i32 0, i32 0
  %48 = load i32, ptr %47, align 4, !tbaa !38
  %49 = icmp slt i32 %45, %48
  br i1 %49, label %50, label %52

50:                                               ; preds = %44
  %51 = load i32, ptr %14, align 4, !tbaa !12
  br label %56

52:                                               ; preds = %44
  %53 = load ptr, ptr %9, align 8, !tbaa !35
  %54 = getelementptr inbounds nuw %struct.u_scanf_spec_info, ptr %53, i32 0, i32 0
  %55 = load i32, ptr %54, align 4, !tbaa !38
  br label %56

56:                                               ; preds = %52, %50
  %57 = phi i32 [ %51, %50 ], [ %55, %52 ]
  store i32 %57, ptr %14, align 4, !tbaa !12
  br label %58

58:                                               ; preds = %56, %6
  %59 = load ptr, ptr %8, align 8, !tbaa !3
  %60 = getelementptr inbounds nuw %struct.UFILE, ptr %59, i32 0, i32 3
  %61 = getelementptr inbounds nuw %struct.u_localized_string, ptr %60, i32 0, i32 3
  %62 = call ptr @u_locbund_getNumberFormat_77(ptr noundef %61, i32 noundef 5)
  store ptr %62, ptr %16, align 8, !tbaa !64
  %63 = load ptr, ptr %16, align 8, !tbaa !64
  %64 = icmp eq ptr %63, null
  br i1 %64, label %65, label %66

65:                                               ; preds = %58
  store i32 0, ptr %7, align 4
  store i32 1, ptr %20, align 4
  br label %101

66:                                               ; preds = %58
  %67 = load ptr, ptr %16, align 8, !tbaa !64
  %68 = load ptr, ptr %8, align 8, !tbaa !3
  %69 = getelementptr inbounds nuw %struct.UFILE, ptr %68, i32 0, i32 3
  %70 = getelementptr inbounds nuw %struct.u_localized_string, ptr %69, i32 0, i32 0
  %71 = load ptr, ptr %70, align 8, !tbaa !63
  %72 = load i32, ptr %14, align 4, !tbaa !12
  %73 = call double @unum_parseDouble_77(ptr noundef %67, ptr noundef %71, i32 noundef %72, ptr noundef %17, ptr noundef %19)
  store double %73, ptr %15, align 8, !tbaa !67
  %74 = load ptr, ptr %9, align 8, !tbaa !35
  %75 = getelementptr inbounds nuw %struct.u_scanf_spec_info, ptr %74, i32 0, i32 3
  %76 = load i8, ptr %75, align 4, !tbaa !41
  %77 = icmp ne i8 %76, 0
  br i1 %77, label %83, label %78

78:                                               ; preds = %66
  %79 = load double, ptr %15, align 8, !tbaa !67
  %80 = load ptr, ptr %10, align 8, !tbaa !50
  %81 = getelementptr inbounds %union.ufmt_args, ptr %80, i64 0
  %82 = load ptr, ptr %81, align 8, !tbaa !28
  store double %79, ptr %82, align 8, !tbaa !67
  br label %83

83:                                               ; preds = %78, %66
  %84 = load i32, ptr %17, align 4, !tbaa !12
  %85 = load ptr, ptr %8, align 8, !tbaa !3
  %86 = getelementptr inbounds nuw %struct.UFILE, ptr %85, i32 0, i32 3
  %87 = getelementptr inbounds nuw %struct.u_localized_string, ptr %86, i32 0, i32 0
  %88 = load ptr, ptr %87, align 8, !tbaa !63
  %89 = sext i32 %84 to i64
  %90 = getelementptr inbounds i16, ptr %88, i64 %89
  store ptr %90, ptr %87, align 8, !tbaa !63
  %91 = load ptr, ptr %9, align 8, !tbaa !35
  %92 = getelementptr inbounds nuw %struct.u_scanf_spec_info, ptr %91, i32 0, i32 3
  %93 = load i8, ptr %92, align 4, !tbaa !41
  %94 = icmp ne i8 %93, 0
  %95 = xor i1 %94, true
  %96 = zext i1 %95 to i32
  %97 = load ptr, ptr %13, align 8, !tbaa !52
  store i32 %96, ptr %97, align 4, !tbaa !12
  %98 = load i32, ptr %17, align 4, !tbaa !12
  %99 = load i32, ptr %18, align 4, !tbaa !12
  %100 = add nsw i32 %98, %99
  store i32 %100, ptr %7, align 4
  store i32 1, ptr %20, align 4
  br label %101

101:                                              ; preds = %83, %65
  call void @llvm.lifetime.end.p0(i64 4, ptr %19) #5
  call void @llvm.lifetime.end.p0(i64 4, ptr %18) #5
  call void @llvm.lifetime.end.p0(i64 4, ptr %17) #5
  call void @llvm.lifetime.end.p0(i64 8, ptr %16) #5
  call void @llvm.lifetime.end.p0(i64 8, ptr %15) #5
  call void @llvm.lifetime.end.p0(i64 4, ptr %14) #5
  %102 = load i32, ptr %7, align 4
  ret i32 %102
}