; Function Attrs: mustprogress uwtable
define internal noundef i32 @_ZL24u_scanf_spellout_handlerP5UFILEP17u_scanf_spec_infoP9ufmt_argsPKDsPiS7_(ptr noundef %0, ptr noundef readonly captures(none) %1, ptr noundef readonly captures(none) %2, ptr readnone captures(none) %3, ptr readnone captures(none) %4, ptr noundef writeonly captures(none) %5) #0 {
  %7 = alloca i16, align 2
  %8 = alloca i32, align 4
  %9 = alloca i32, align 4
  call void @llvm.lifetime.start.p0(i64 4, ptr nonnull %8) #6
  store i32 0, ptr %8, align 4, !tbaa !3
  call void @llvm.lifetime.start.p0(i64 4, ptr nonnull %9) #6
  store i32 0, ptr %9, align 4, !tbaa !36
  %10 = getelementptr inbounds nuw i8, ptr %1, i64 6
  %11 = load i16, ptr %10, align 2, !tbaa !16
  call void @llvm.lifetime.start.p0(i64 2, ptr nonnull %7) #6
  br label %12

12:                                               ; preds = %.critedge2.i, %6
  %.0.i = phi i32 [ 0, %6 ], [ %20, %.critedge2.i ]
  %13 = call signext i8 @ufile_getch_77(ptr noundef %0, ptr noundef nonnull %7)
  switch i8 %13, label %.critedge.i [
    i8 1, label %14
    i8 0, label %_ZL23u_scanf_skip_leading_wsP5UFILEDs.exit
  ]

14:                                               ; preds = %12
  %15 = load i16, ptr %7, align 2, !tbaa !7
  %16 = icmp eq i16 %15, %11
  br i1 %16, label %.critedge2.i, label %17

17:                                               ; preds = %14
  %18 = zext i16 %15 to i32
  %19 = call signext i8 @u_isWhitespace_77(i32 noundef %18)
  %.not.i = icmp eq i8 %19, 0
  br i1 %.not.i, label %.critedge.i, label %.critedge2.i

.critedge2.i:                                     ; preds = %17, %14
  %20 = add nuw nsw i32 %.0.i, 1
  br label %12, !llvm.loop !38

.critedge.i:                                      ; preds = %17, %12
  %21 = load i16, ptr %7, align 2, !tbaa !7
  %22 = zext i16 %21 to i32
  %23 = call i32 @u_fungetc_77(i32 noundef %22, ptr noundef %0)
  br label %_ZL23u_scanf_skip_leading_wsP5UFILEDs.exit

_ZL23u_scanf_skip_leading_wsP5UFILEDs.exit:       ; preds = %12, %.critedge.i
  call void @llvm.lifetime.end.p0(i64 2, ptr nonnull %7) #6
  call void @_Z26ufile_fill_uchar_buffer_77P5UFILE(ptr noundef %0)
  %24 = getelementptr inbounds nuw i8, ptr %0, i64 24
  %25 = getelementptr inbounds nuw i8, ptr %0, i64 32
  %26 = load ptr, ptr %25, align 8, !tbaa !39
  %27 = load ptr, ptr %24, align 8, !tbaa !47
  %28 = load i32, ptr %1, align 4, !tbaa !14
  %29 = getelementptr inbounds nuw i8, ptr %0, i64 48
  %30 = call ptr @u_locbund_getNumberFormat_77(ptr noundef nonnull %29, i32 noundef 5)
  %31 = icmp eq ptr %30, null
  br i1 %31, label %51, label %32

32:                                               ; preds = %_ZL23u_scanf_skip_leading_wsP5UFILEDs.exit
  %.not = icmp eq i32 %28, -1
  %33 = ptrtoint ptr %26 to i64
  %34 = ptrtoint ptr %27 to i64
  %35 = sub i64 %33, %34
  %36 = lshr exact i64 %35, 1
  %37 = trunc i64 %36 to i32
  %. = call i32 @llvm.smin.i32(i32 %28, i32 %37)
  %.022 = select i1 %.not, i32 %37, i32 %.
  %38 = load ptr, ptr %24, align 8, !tbaa !47
  %39 = call double @unum_parseDouble_77(ptr noundef nonnull %30, ptr noundef %38, i32 noundef %.022, ptr noundef nonnull %8, ptr noundef nonnull %9)
  %40 = getelementptr inbounds nuw i8, ptr %1, i64 8
  %41 = load i8, ptr %40, align 4, !tbaa !19
  %.not26 = icmp eq i8 %41, 0
  br i1 %.not26, label %42, label %44

42:                                               ; preds = %32
  %43 = load ptr, ptr %2, align 8, !tbaa !33
  store double %39, ptr %43, align 8, !tbaa !49
  br label %44

44:                                               ; preds = %42, %32
  %45 = load i32, ptr %8, align 4, !tbaa !3
  %46 = load ptr, ptr %24, align 8, !tbaa !47
  %47 = sext i32 %45 to i64
  %48 = getelementptr inbounds i16, ptr %46, i64 %47
  store ptr %48, ptr %24, align 8, !tbaa !47
  %49 = zext i1 %.not26 to i32
  store i32 %49, ptr %5, align 4, !tbaa !3
  %50 = add nsw i32 %45, %.0.i
  br label %51

51:                                               ; preds = %_ZL23u_scanf_skip_leading_wsP5UFILEDs.exit, %44
  %.0 = phi i32 [ %50, %44 ], [ 0, %_ZL23u_scanf_skip_leading_wsP5UFILEDs.exit ]
  call void @llvm.lifetime.end.p0(i64 4, ptr nonnull %9) #6
  call void @llvm.lifetime.end.p0(i64 4, ptr nonnull %8) #6
  ret i32 %.0
}